-----BEGIN RSA PRIVATE KEY-----
Proc-Type: 4,ENCRYPTED
DEK-Info: DES-EDE3-CBC,FA6DD0C371A35295

GJwQsZllpYt+M3AhNLJlLzHcV4uZQQAM+lHhWE+KyFb7clyLBWdjw+D5kobCaRa0
1fp9X1g385RJypMxVxCrdvB3LFDg6Mp8EF94G36XnlVqeRJ8PUfzERSftwjlxLLq
DBcOXfgCPQqsOiZMZhM/iLdmDic9m2V6207jU1jpnhCM8b6whbs0u7Xt4i3fa/E/
g3pN+d6FQZY2CCTA8GMNHD4xl5PTvH/27MC04jeg16ZKt0G2NwnuxdQMki3o3A4b
YMlIXB+RtP+E9KssDsIOc2kquo7JZiQhOqvkvN9Dc5KaGx9PQ/tpAVPah/MIPoTv
FiGM0g+oc6Hn8U1jcnpW4qpB0U5Iv1merTdudQdRIGfbq2vEF2TzCOha4aY2JFO2
6SOdrTcH5mzkMuxJff22bZ6DqzXMLXJKwKF7y6amwM7+u9unszkvplSBZaBx0ouL
QbdNRg14kevzOWnb69OwWNRBqWn5JAVH/wNz1sIIaMKkUjR9/YW1S1K/KDa65mDl
bspXF/K49Xw8K2H7ESu66ZB7apr5k7IQSj4i5fMCKpF5T+TLn3hySuNTnFVEGZfC
vy29JSY9BncKJQUdoFV7kntN1C/vz9UBMvnAQ40dYvEoktWQ0NQWtIx5C6BiKBlm
LjCijhBe4s8PgJ7s7QhtUk6G2/3Jvlsw6wwxouih15C0pvEDzc4vhGDWKUiyJ0aI
5tO5MZnsB3XBp43nhesW55D5SFApA672fSOi8dr25xOtA6uEufyywEgjHRAmtK9l
qfbJN428kDvXnmlHsSLWmA2nlio1PNMw4p3EEln1cSPUwyLspd0BOA==
-----END RSA PRIVATE KEY-----
Certificate:
    Data:
        Version: 3 (0x2)
        Serial Number: 4103 (0x1007)
        Signature Algorithm: sha256WithRSAEncryption
        Issuer: C=BD, ST=Sylhet, O=itest, OU=lab, CN=itest.com
        Validity
            Not Before: Dec 11 15:14:52 2019 GMT
            Not After : Dec 10 15:14:52 2020 GMT
        Subject: C=BD, ST=Sylhet, O=itest, OU=lab, CN=idp.sust.com
        Subject Public Key Info:
            Public Key Algorithm: rsaEncryption
                RSA Public-Key: (1024 bit)
                Modulus:
                    00:9d:6a:be:70:7b:43:99:bb:6a:6b:bd:de:e1:b9:
                    dc:13:3c:34:c9:2f:a1:4a:54:be:55:28:db:dd:66:
                    6c:28:fd:bc:f9:88:df:76:06:e6:3a:6e:df:ad:15:
                    8d:3f:b2:79:b7:15:91:ad:a6:f9:fb:13:b7:8a:15:
                    66:72:b7:23:f8:24:42:db:d8:15:17:8d:44:d4:11:
                    8e:c1:88:aa:3a:8b:ac:07:bb:50:97:04:19:8e:97:
                    34:4a:de:fa:59:39:43:ba:42:89:66:9d:e3:76:d9:
                    6d:2b:64:44:ed:74:4d:9a:89:47:19:e0:bb:3b:6c:
                    4d:b1:dd:b1:5d:09:ca:ee:bd
                Exponent: 65537 (0x10001)
        X509v3 extensions:
            X509v3 Basic Constraints: 
                CA:FALSE
            Netscape Comment: 
                OpenSSL Generated Certificate
            X509v3 Subject Key Identifier: 
                B8:3E:9D:19:D2:81:0F:B0:9C:E8:2E:FB:53:9E:64:47:54:4C:C1:B7
            X509v3 Authority Key Identifier: 
                keyid:E5:05:33:FD:B4:44:7F:FB:80:BC:07:38:F5:5D:E3:D1:53:83:BD:4D

    Signature Algorithm: sha256WithRSAEncryption
         62:22:35:7e:c3:ae:72:3c:61:34:27:8e:88:9e:45:9c:16:9a:
         78:53:be:9a:62:06:d6:0c:1b:d6:67:66:c1:5c:4b:16:3d:74:
         b3:c9:13:82:20:1b:af:99:de:1c:e7:27:4c:0f:02:1c:68:da:
         fa:24:8c:0b:73:55:7f:09:b6:93:3f:c5:12:c0:97:9b:5b:a6:
         59:4a:5d:af:90:70:7c:cc:06:07:e4:aa:e6:89:8f:46:8e:7c:
         bd:ad:82:5a:d8:7a:b1:3b:87:06:ad:e5:4e:6c:09:2d:76:43:
         34:22:fa:39:bd:b5:78:92:cb:45:7c:76:a3:b3:c4:7a:b1:c6:
         ae:b9:c4:48:11:7d:a5:5d:e0:5a:ab:6f:f4:58:17:c0:e5:31:
         c7:47:61:84:e8:de:e4:b8:34:6c:19:04:1f:df:5e:05:45:53:
         8f:c6:c3:0e:f0:1d:15:0a:c1:20:3c:61:d1:22:91:f6:e7:77:
         67:c1:c1:48:f7:77:d6:46:11:6b:80:f8:f2:d3:e4:d1:8d:b5:
         41:0f:d4:b4:55:d0:a5:a4:58:68:7e:dc:07:99:58:b5:c1:5c:
         22:0a:e4:f0:95:6a:5c:f5:ce:4d:dc:ba:b7:db:86:cf:75:6b:
         00:4c:c3:b5:ce:75:27:71:18:8e:4a:a7:07:61:b5:f7:e5:69:
         97:36:13:b5
-----BEGIN CERTIFICATE-----
MIIDFjCCAf6gAwIBAgICEAcwDQYJKoZIhvcNAQELBQAwUDELMAkGA1UEBhMCQkQx
DzANBgNVBAgMBlN5bGhldDEOMAwGA1UECgwFaXRlc3QxDDAKBgNVBAsMA2xhYjES
MBAGA1UEAwwJaXRlc3QuY29tMB4XDTE5MTIxMTE1MTQ1MloXDTIwMTIxMDE1MTQ1
MlowUzELMAkGA1UEBhMCQkQxDzANBgNVBAgMBlN5bGhldDEOMAwGA1UECgwFaXRl
c3QxDDAKBgNVBAsMA2xhYjEVMBMGA1UEAwwMaWRwLnN1c3QuY29tMIGfMA0GCSqG
SIb3DQEBAQUAA4GNADCBiQKBgQCdar5we0OZu2prvd7hudwTPDTJL6FKVL5VKNvd
Zmwo/bz5iN92BuY6bt+tFY0/snm3FZGtpvn7E7eKFWZytyP4JELb2BUXjUTUEY7B
iKo6i6wHu1CXBBmOlzRK3vpZOUO6QolmneN22W0rZETtdE2aiUcZ4Ls7bE2x3bFd
CcruvQIDAQABo3sweTAJBgNVHRMEAjAAMCwGCWCGSAGG+EIBDQQfFh1PcGVuU1NM
IEdlbmVyYXRlZCBDZXJ0aWZpY2F0ZTAdBgNVHQ4EFgQUuD6dGdKBD7Cc6C77U55k
R1RMwbcwHwYDVR0jBBgwFoAU5QUz/bREf/uAvAc49V3j0VODvU0wDQYJKoZIhvcN
AQELBQADggEBAGIiNX7DrnI8YTQnjoieRZwWmnhTvppiBtYMG9ZnZsFcSxY9dLPJ
E4IgG6+Z3hznJ0wPAhxo2vokjAtzVX8JtpM/xRLAl5tbpllKXa+QcHzMBgfkquaJ
j0aOfL2tglrYerE7hwat5U5sCS12QzQi+jm9tXiSy0V8dqOzxHqxxq65xEgRfaVd
4Fqrb/RYF8DlMcdHYYTo3uS4NGwZBB/fXgVFU4/Gww7wHRUKwSA8YdEikfbnd2fB
wUj3d9ZGEWuA+PLT5NGNtUEP1LRV0KWkWGh+3AeZWLXBXCIK5PCValz1zk3curfb
hs91awBMw7XOdSdxGI5KpwdhtfflaZc2E7U=
-----END CERTIFICATE-----
