-----BEGIN RSA PRIVATE KEY-----
Proc-Type: 4,ENCRYPTED
DEK-Info: DES-EDE3-CBC,D17F7B0C04870B43

SDA2bIn/o3XHbo4T1HzR7VmH0WyeEaaGml3C9a2+0lEFIIOACGVsxDQCKl1xPiEa
Hu6dlWdyZeVU3esYp57ae01RqZv6j6dNcKaxuTehYPWfXISXNr0m2uPPr4ucaU7V
LAJ3xMoD6H5zbt9LoiKDOTQVhcbJsGmgk01xLvEOpIchv8LQ/Z7zOkQBhLDe8S0e
zjqQcrXN6CxRedfoegSSnQSiahw76DNpcRiCGXDPIU14QEwvm6fhFo8kDorikXFg
r3m38U3gPsdMPnBSe+oq3ZJYMgQwoTz6o41dEbA+Iid5WEfpUnXTLlaMoPvjEqdY
GUHiOUJ67lM36ah+n1uEM1muy2qvdot+XeHc3IGtFD5CKwlIWxfQwxo689e8Xig5
1SkuJijQlR22XTCmClAM6wmHcPebv7Y9nqDQvpLGRlW6Q1LWAmQvXCBobP3H0Oy6
l8uoOO90AiGm+18IAOMihXbdb+KV8iR1OJhcPl5/GVX8tMnebLkMsslrXzJmjomt
9tW21GT4IFd9Sn6ybdOPFyeAQjdQ1uSBLtQxRFUqxMFzak1ouICUbQ0oR99s0zc2
T+Wu3BJxHKt6F5VGSjfsplRj3cUeS+S8E/Dow7J1BA9qOoPb2MX9h4QEA7ZYiKGQ
KEYrv8h3mCbez93TlDtcoJsDLvSUZ+co71lBCuZdXbJXeX+rR9AoDzwTwJYZoPEM
S6VjjPRRSHUOarAeaZttfU0HHbnnt8CHsae42h/nfHKYjQNAcJklpTOc9P74Dz3t
qqXo79mtrjhxjELSIlVEIG/66fOdpQOHbH33QQfGLPMzpYhygFT69w==
-----END RSA PRIVATE KEY-----
Certificate:
    Data:
        Version: 3 (0x2)
        Serial Number: 4102 (0x1006)
        Signature Algorithm: sha256WithRSAEncryption
        Issuer: C=BD, ST=Sylhet, O=itest, OU=lab, CN=itest.com
        Validity
            Not Before: Dec 11 15:11:33 2019 GMT
            Not After : Dec 10 15:11:33 2020 GMT
        Subject: C=BD, ST=Sylhet, O=itest, OU=lab, CN=sp2.sust.com
        Subject Public Key Info:
            Public Key Algorithm: rsaEncryption
                RSA Public-Key: (1024 bit)
                Modulus:
                    00:a9:d4:a6:68:03:f4:e2:88:9e:25:3a:ba:88:af:
                    83:4c:de:dd:5a:22:cc:68:87:6c:ce:b4:88:47:07:
                    1e:f9:70:37:b5:8f:5b:73:6a:64:d5:37:7d:ba:73:
                    cb:8b:7e:a3:cb:2a:fe:b2:b0:1c:95:a2:32:9c:48:
                    6b:b3:c9:61:6b:57:fd:88:2a:78:c0:1b:1a:9d:bd:
                    59:b4:b3:8e:5d:b9:af:54:d6:4e:88:99:7d:44:33:
                    12:c0:1f:25:b3:1e:d2:ec:bd:e5:50:e2:80:8a:86:
                    6b:c0:4c:5e:d1:09:99:43:03:09:0b:e9:b0:5b:15:
                    3b:47:fa:70:91:be:94:92:97
                Exponent: 65537 (0x10001)
        X509v3 extensions:
            X509v3 Basic Constraints: 
                CA:FALSE
            Netscape Comment: 
                OpenSSL Generated Certificate
            X509v3 Subject Key Identifier: 
                6B:37:8F:51:75:F2:17:55:C8:EC:21:07:B3:FF:63:5E:36:3D:90:D9
            X509v3 Authority Key Identifier: 
                keyid:E5:05:33:FD:B4:44:7F:FB:80:BC:07:38:F5:5D:E3:D1:53:83:BD:4D

    Signature Algorithm: sha256WithRSAEncryption
         96:b9:cf:9b:67:d1:87:cd:71:c7:62:4b:62:d2:b0:99:1a:82:
         59:9a:f0:47:ec:b3:6b:90:f1:6b:6b:98:60:89:40:81:a7:61:
         ee:6b:66:23:b6:46:a5:1c:3b:db:f8:aa:67:56:f8:e2:6a:49:
         7d:4b:40:48:b1:6a:1a:ca:f0:1a:0e:a3:3a:eb:ac:8e:93:64:
         9a:9a:6a:fd:0f:1c:34:80:c4:b9:54:1d:5a:e3:30:66:b4:66:
         7c:eb:4b:8c:83:49:19:2e:c8:72:2f:b8:1c:3e:86:0f:31:ba:
         52:a5:44:53:64:15:36:ed:9d:ef:f7:ff:35:50:d8:27:4f:fc:
         e9:e2:bc:1f:f4:9d:48:70:ff:6f:f2:38:9e:6b:6f:dc:0e:4e:
         12:37:5b:ff:49:73:8f:cd:a3:b5:49:43:4d:d4:e6:c0:9f:7c:
         ed:2d:0e:08:7e:1f:60:be:b1:36:d6:0e:fe:5d:6b:02:fc:d8:
         ac:fd:b5:06:ce:24:26:cd:a3:ee:d4:31:26:c8:73:95:b8:77:
         ac:63:50:ca:a4:9b:7f:c5:d9:90:ff:f3:37:27:b7:a7:4e:a5:
         4a:98:d2:61:b3:9c:da:03:a0:79:d7:03:de:97:36:03:d3:70:
         b9:59:cb:da:ef:77:f1:f1:2b:e6:e4:6c:a1:45:98:b2:1c:1c:
         62:7e:03:dd
-----BEGIN CERTIFICATE-----
MIIDFjCCAf6gAwIBAgICEAYwDQYJKoZIhvcNAQELBQAwUDELMAkGA1UEBhMCQkQx
DzANBgNVBAgMBlN5bGhldDEOMAwGA1UECgwFaXRlc3QxDDAKBgNVBAsMA2xhYjES
MBAGA1UEAwwJaXRlc3QuY29tMB4XDTE5MTIxMTE1MTEzM1oXDTIwMTIxMDE1MTEz
M1owUzELMAkGA1UEBhMCQkQxDzANBgNVBAgMBlN5bGhldDEOMAwGA1UECgwFaXRl
c3QxDDAKBgNVBAsMA2xhYjEVMBMGA1UEAwwMc3AyLnN1c3QuY29tMIGfMA0GCSqG
SIb3DQEBAQUAA4GNADCBiQKBgQCp1KZoA/TiiJ4lOrqIr4NM3t1aIsxoh2zOtIhH
Bx75cDe1j1tzamTVN326c8uLfqPLKv6ysByVojKcSGuzyWFrV/2IKnjAGxqdvVm0
s45dua9U1k6ImX1EMxLAHyWzHtLsveVQ4oCKhmvATF7RCZlDAwkL6bBbFTtH+nCR
vpSSlwIDAQABo3sweTAJBgNVHRMEAjAAMCwGCWCGSAGG+EIBDQQfFh1PcGVuU1NM
IEdlbmVyYXRlZCBDZXJ0aWZpY2F0ZTAdBgNVHQ4EFgQUazePUXXyF1XI7CEHs/9j
XjY9kNkwHwYDVR0jBBgwFoAU5QUz/bREf/uAvAc49V3j0VODvU0wDQYJKoZIhvcN
AQELBQADggEBAJa5z5tn0YfNccdiS2LSsJkaglma8Efss2uQ8WtrmGCJQIGnYe5r
ZiO2RqUcO9v4qmdW+OJqSX1LQEixahrK8BoOozrrrI6TZJqaav0PHDSAxLlUHVrj
MGa0ZnzrS4yDSRkuyHIvuBw+hg8xulKlRFNkFTbtne/3/zVQ2CdP/OnivB/0nUhw
/2/yOJ5rb9wOThI3W/9Jc4/No7VJQ03U5sCffO0tDgh+H2C+sTbWDv5dawL82Kz9
tQbOJCbNo+7UMSbIc5W4d6xjUMqkm3/F2ZD/8zcnt6dOpUqY0mGznNoDoHnXA96X
NgPTcLlZy9rvd/HxK+bkbKFFmLIcHGJ+A90=
-----END CERTIFICATE-----
