Certificate:
    Data:
        Version: 3 (0x2)
        Serial Number: 4100 (0x1004)
        Signature Algorithm: sha256WithRSAEncryption
        Issuer: C=BD, ST=Sylhet, L=Sylhet, O=itest, OU=lab, CN=itest.com/emailAddress=itest@gmail.com
        Validity
            Not Before: Oct 19 14:11:27 2019 GMT
            Not After : Oct 18 14:11:27 2020 GMT
        Subject: C=BD, ST=Sylhet, O=itest, OU=lab, CN=sp2.sust.com
        Subject Public Key Info:
            Public Key Algorithm: rsaEncryption
                RSA Public-Key: (1024 bit)
                Modulus:
                    00:c9:b5:22:ea:6f:d0:af:cd:69:b2:0f:fb:db:5a:
                    4e:1e:8c:3b:9e:2f:a9:1d:5f:06:66:f9:39:dd:75:
                    74:55:87:64:60:e8:1c:27:35:26:b6:8e:f4:17:4d:
                    29:62:3a:5c:07:52:ea:b0:1d:4b:52:95:85:7c:96:
                    0f:fc:18:0b:c6:ea:03:9a:44:0d:0b:d9:c9:db:73:
                    6a:e0:be:77:92:39:55:52:d0:6c:bb:d9:4f:42:49:
                    ed:dd:a9:12:45:c7:24:a3:cb:51:c8:54:b1:69:a7:
                    c7:f2:39:45:92:b2:52:f8:32:c8:9d:66:c8:ca:4b:
                    47:41:28:4c:77:5a:2e:9c:f9
                Exponent: 65537 (0x10001)
        X509v3 extensions:
            X509v3 Basic Constraints: 
                CA:FALSE
            Netscape Comment: 
                OpenSSL Generated Certificate
            X509v3 Subject Key Identifier: 
                54:75:F9:72:87:EF:8C:5C:C2:79:3C:33:6D:51:6A:54:7C:F5:C0:75
            X509v3 Authority Key Identifier: 
                keyid:5E:AC:06:B0:08:D5:6C:F0:C6:16:96:D3:A0:1D:BE:2A:9A:90:8C:67

    Signature Algorithm: sha256WithRSAEncryption
         39:d2:15:ed:3e:88:5b:3b:39:c3:12:1a:a0:7b:4c:98:df:27:
         ec:7f:54:30:2e:d3:31:54:03:03:30:0c:87:a7:9d:5d:70:ba:
         e1:84:79:b7:9a:5e:f2:48:1f:92:b6:46:23:1a:ab:08:e8:e7:
         9c:01:ba:c0:fb:e0:50:5c:cd:8d:db:b4:25:33:15:48:66:f0:
         02:55:a1:32:c4:6f:d7:38:fa:ac:72:58:30:37:96:cf:a7:17:
         90:a0:06:4d:bf:40:7a:ef:e7:ce:bf:ab:46:6f:0b:b1:b5:9f:
         fb:28:11:96:cc:67:dc:ca:e1:5c:bc:9b:5a:bd:d5:1a:50:8a:
         8d:f1:60:c6:67:a2:99:67:42:91:94:e5:aa:68:53:6c:27:e1:
         0b:e0:a9:1d:a3:46:00:cc:3e:1a:ac:a0:54:ca:fe:cb:8b:6c:
         84:22:32:01:b9:62:08:3f:ff:34:2e:16:3e:11:20:4b:d8:df:
         6b:a0:0e:cb:b9:84:ec:a8:ed:aa:a8:18:a2:dc:4c:6d:7f:dd:
         bc:1c:c4:6b:b3:27:27:f1:e2:71:2a:a2:66:aa:cd:15:04:59:
         bb:08:5f:0f:57:3e:62:42:9d:05:e3:23:6d:89:f9:a2:7b:06:
         c4:b2:34:07:20:b4:c0:3d:67:ec:7b:06:f6:86:ef:27:98:1c:
         1b:62:15:dc
-----BEGIN CERTIFICATE-----
MIIDSDCCAjCgAwIBAgICEAQwDQYJKoZIhvcNAQELBQAwgYExCzAJBgNVBAYTAkJE
MQ8wDQYDVQQIDAZTeWxoZXQxDzANBgNVBAcMBlN5bGhldDEOMAwGA1UECgwFaXRl
c3QxDDAKBgNVBAsMA2xhYjESMBAGA1UEAwwJaXRlc3QuY29tMR4wHAYJKoZIhvcN
AQkBFg9pdGVzdEBnbWFpbC5jb20wHhcNMTkxMDE5MTQxMTI3WhcNMjAxMDE4MTQx
MTI3WjBTMQswCQYDVQQGEwJCRDEPMA0GA1UECAwGU3lsaGV0MQ4wDAYDVQQKDAVp
dGVzdDEMMAoGA1UECwwDbGFiMRUwEwYDVQQDDAxzcDIuc3VzdC5jb20wgZ8wDQYJ
KoZIhvcNAQEBBQADgY0AMIGJAoGBAMm1Iupv0K/NabIP+9taTh6MO54vqR1fBmb5
Od11dFWHZGDoHCc1JraO9BdNKWI6XAdS6rAdS1KVhXyWD/wYC8bqA5pEDQvZydtz
auC+d5I5VVLQbLvZT0JJ7d2pEkXHJKPLUchUsWmnx/I5RZKyUvgyyJ1myMpLR0Eo
THdaLpz5AgMBAAGjezB5MAkGA1UdEwQCMAAwLAYJYIZIAYb4QgENBB8WHU9wZW5T
U0wgR2VuZXJhdGVkIENlcnRpZmljYXRlMB0GA1UdDgQWBBRUdflyh++MXMJ5PDNt
UWpUfPXAdTAfBgNVHSMEGDAWgBRerAawCNVs8MYWltOgHb4qmpCMZzANBgkqhkiG
9w0BAQsFAAOCAQEAOdIV7T6IWzs5wxIaoHtMmN8n7H9UMC7TMVQDAzAMh6edXXC6
4YR5t5pe8kgfkrZGIxqrCOjnnAG6wPvgUFzNjdu0JTMVSGbwAlWhMsRv1zj6rHJY
MDeWz6cXkKAGTb9Aeu/nzr+rRm8LsbWf+ygRlsxn3MrhXLybWr3VGlCKjfFgxmei
mWdCkZTlqmhTbCfhC+CpHaNGAMw+GqygVMr+y4tshCIyAbliCD//NC4WPhEgS9jf
a6AOy7mE7KjtqqgYotxMbX/dvBzEa7MnJ/HicSqiZqrNFQRZuwhfD1c+YkKdBeMj
bYn5onsGxLI0ByC0wD1n7HsG9obvJ5gcG2IV3A==
-----END CERTIFICATE-----
